MPASM 5.77                    ETCHSKETCH.ASM   10-13-2020  15:31:53         PAGE  1


LOC  OBJECT CODE     LINE SOURCE TEXT
  VALUE

                      00001 ;*******************************************************************************                        
                                                                                                                            
                      00002 ;*******************************************************************************
                      00003 ;                                                                              
                      00004 ;    Filename: Laboratorio 7                                                               
                      00005 ;    Date: Oct 2020                                                                                     
                                                                 
                      00006 ;    Author: Cuellar                                                           
                      00007 ;    Company: UVG                                                              
                      00008 ;    Description: LAB7                                                                                  
                                                                           
                      00009 #include "p16f887.inc"
                      00001         LIST
                      00002 
                      00003 ;==========================================================================
                      00004 ; Build date : Nov 22 2017
                      00005 ;  MPASM PIC16F887 processor include
                      00006 ; 
                      00007 ;  (c) Copyright 1999-2017 Microchip Technology, All rights reserved
                      00008 ;==========================================================================
                      00009 
                      00810         LIST
                      00010 
                      00011 ; CONFIG1
                      00012 ; __config 0xE0D4
2007   20D4           00013  __CONFIG _CONFIG1, _FOSC_INTRC_NOCLKOUT & _WDTE_OFF & _PWRTE_OFF & _MCLRE_OFF & _CP_OFF & _CPD_OFF & _B
                            OREN_OFF & _IESO_OFF & _FCMEN_OFF & _LVP_OFF
                      00014 ; CONFIG2
                      00015 ; __config 0xFFFF
2008   3FFF           00016  __CONFIG _CONFIG2, _BOR4V_BOR40V & _WRT_OFF
                      00017  
                      00018 ;#####VARIABLES####
                      00019 GPR UDATA
0000                  00020 ADC_VAL RES 1
0001                  00021 ADC_VAL2 RES 1
0002                  00022 DECODE  RES 1
0003                  00023 DECODE2 RES 1
0004                  00024 DECODE3 RES 1
0005                  00025 DECODE4 RES 1
0006                  00026 CONT1   RES 1
0007                  00027 CONT2   RES 1
                      00028  
                      00029 ;####RESET VECTOR####
                      00030 RES_VECT  CODE    0x0000            ; processor reset vector
0000   2???           00031     GOTO    SETUP                   ; go to beginning of program
                      00032 
                      00033 ;####INTERRUPT####
                      00034     
                      00035 ;####TABLAS####
                      00036 ;Tabla para decodificar valores binarios hacia el display de 7 seg
0001                  00037 TABLA_7SEG
0001   390F           00038     ANDLW B'00001111'
Message[305]: Using default destination of 1 (file).
MPASM 5.77                    ETCHSKETCH.ASM   10-13-2020  15:31:53         PAGE  2


LOC  OBJECT CODE     LINE SOURCE TEXT
  VALUE

0002   0782           00039     ADDWF PCL
0003   343F           00040     RETLW   B'000111111' ;O
0004   3406           00041     RETLW   B'000000110' ;1
0005   345B           00042     RETLW   B'001011011' ;2
0006   344F           00043     RETLW   B'001001111' ;3
0007   3466           00044     RETLW   B'01100110' ;4
0008   346D           00045     RETLW   B'01101101' ;5
0009   347D           00046     RETLW   B'01111101' ;6
000A   3407           00047     RETLW   B'00000111' ;7
000B   347F           00048     RETLW   B'01111111' ;8
000C   3467           00049     RETLW   B'01100111' ;9
000D   3477           00050     RETLW   B'01110111' ;A
000E   347C           00051     RETLW   B'01111100' ;b
000F   3439           00052     RETLW   B'00111001' ;C
0010   345E           00053     RETLW   B'01011110' ;d
0011   3479           00054     RETLW   B'01111001' ;E
0012   3471           00055     RETLW   B'01110001' ;F
                      00056     
                      00057     
                      00058 MAIN_PROG CODE                      ; let linker place main program
0000                  00059 SETUP:
0000   2???           00060     CALL CONFIG_IO
0001   2???           00061     CALL CONFIG_ADC
0002   2???           00062     CALL CONFIG_TXRX
                      00063     
                      00064 ;####EMPIEZA MAINLOOP####     
0003                  00065 LOOP:
0003   2???           00066     CALL    CONFIG_ADC
0004   1283 1303      00067     BANKSEL PORTA
0006   2???           00068     CALL    DELAY_AQ
0007   149F           00069     BSF     ADCON0, GO
0008   189F           00070     BTFSC   ADCON0, GO
0009   2???           00071     GOTO    $-1
000A   081E           00072     MOVF    ADRESH, W
000B   00??           00073     MOVWF   ADC_VAL
                      00074     ;MOVWF   DECODE
                      00075     ;MOVWF   DECODE2
                      00076     
000C   2???           00077     CALL    ENVIO
000D   2???           00078     CALL    RECIBIR
                      00079     
                      00080 ;###########################################
000E   2???           00081     CALL    CONFIG_ADC2
000F   1283 1303      00082     BANKSEL PORTA
0011   2???           00083     CALL    DELAY_AQ
0012   149F           00084     BSF     ADCON0, GO
0013   189F           00085     BTFSC   ADCON0, GO
0014   2???           00086     GOTO    $-1
0015   081E           00087     MOVF    ADRESH, W
0016   00??           00088     MOVWF   ADC_VAL2
                      00089     ;MOVWF   DECODE
                      00090     ;MOVWF   DECODE2
                      00091     
MPASM 5.77                    ETCHSKETCH.ASM   10-13-2020  15:31:53         PAGE  3


LOC  OBJECT CODE     LINE SOURCE TEXT
  VALUE

0017   2???           00092     CALL    ENVIO2
0018   2???           00093     CALL    RECIBIR2 
                      00094 ;########################################    
                      00095     
                      00096     
0019   2???           00097     CALL SEG7
                      00098     
                      00099     
001A   2???           00100     GOTO    LOOP                         ; loop forever
                      00101     
                      00102 ;####SETUPS####
001B                  00103 CONFIG_IO:
001B   1683 1703      00104     BANKSEL ANSEL
Message[302]: Register in operand not in bank 0.  Ensure that bank bits are correct.
001D   0188           00105     CLRF    ANSEL
Message[305]: Using default destination of 1 (file).
Message[302]: Register in operand not in bank 0.  Ensure that bank bits are correct.
001E   0988           00106     COMF    ANSEL
001F   1683 1303      00107     BANKSEL TRISA
Message[302]: Register in operand not in bank 0.  Ensure that bank bits are correct.
0021   0185           00108     CLRF    TRISA
Message[305]: Using default destination of 1 (file).
Message[302]: Register in operand not in bank 0.  Ensure that bank bits are correct.
0022   0985           00109     COMF    TRISA
Message[302]: Register in operand not in bank 0.  Ensure that bank bits are correct.
0023   0188           00110     CLRF    TRISD
Message[302]: Register in operand not in bank 0.  Ensure that bank bits are correct.
0024   0186           00111     CLRF    TRISB
Message[302]: Register in operand not in bank 0.  Ensure that bank bits are correct.
0025   0187           00112     CLRF    TRISC
0026   1283 1303      00113     BANKSEL PORTD
0028   0185           00114     CLRF    PORTA
0029   0188           00115     CLRF    PORTD
002A   0186           00116     CLRF    PORTB
002B   0187           00117     CLRF    PORTC
002C   0008           00118     RETURN
                      00119     
002D                  00120 CONFIG_ADC:
002D   1683 1303      00121     BANKSEL ADCON1
002F   3000           00122     MOVLW   B'00000000'
Message[302]: Register in operand not in bank 0.  Ensure that bank bits are correct.
0030   009F           00123     MOVWF   ADCON1
0031   1283 1303      00124     BANKSEL ADCON0
0033   3041           00125     MOVLW   B'01000001'
0034   009F           00126     MOVWF   ADCON0
0035   0008           00127     RETURN
                      00128     
0036                  00129 CONFIG_ADC2:
0036   1683 1303      00130     BANKSEL ADCON1
0038   3000           00131     MOVLW   B'00000000'
Message[302]: Register in operand not in bank 0.  Ensure that bank bits are correct.
0039   009F           00132     MOVWF   ADCON1
003A   1283 1303      00133     BANKSEL ADCON0
MPASM 5.77                    ETCHSKETCH.ASM   10-13-2020  15:31:53         PAGE  4


LOC  OBJECT CODE     LINE SOURCE TEXT
  VALUE

003C   3049           00134     MOVLW   B'01001001'
003D   009F           00135     MOVWF   ADCON0
003E   0008           00136     RETURN
                      00137     
003F                  00138 CONFIG_TXRX:
003F   1683 1303      00139     BANKSEL TXSTA
Message[302]: Register in operand not in bank 0.  Ensure that bank bits are correct.
0041   1218           00140     BCF     TXSTA, SYNC
Message[302]: Register in operand not in bank 0.  Ensure that bank bits are correct.
0042   1518           00141     BSF     TXSTA, BRGH
0043   1683 1703      00142     BANKSEL BAUDCTL
Message[302]: Register in operand not in bank 0.  Ensure that bank bits are correct.
0045   1587           00143     BSF     BAUDCTL, BRG16
0046   1683 1303      00144     BANKSEL SPBRG
0048   3019           00145     MOVLW   .25
Message[302]: Register in operand not in bank 0.  Ensure that bank bits are correct.
0049   0099           00146     MOVWF   SPBRG
Message[302]: Register in operand not in bank 0.  Ensure that bank bits are correct.
004A   019A           00147     CLRF    SPBRGH
004B   1283 1303      00148     BANKSEL RCSTA
004D   1798           00149     BSF     RCSTA, SPEN
004E   1318           00150     BCF     RCSTA, RX9
004F   1618           00151     BSF     RCSTA, CREN
0050   1683 1303      00152     BANKSEL TXSTA
Message[302]: Register in operand not in bank 0.  Ensure that bank bits are correct.
0052   1698           00153     BSF     TXSTA, TXEN
0053   1283 1303      00154     BANKSEL PORTA
0055   0008           00155     RETURN
                      00156     
                      00157     
0056                  00158 DELAY_AQ:
0056   0000           00159     NOP
0057   0000           00160     NOP
0058   0000           00161     NOP
0059   0000           00162     NOP
005A   0000           00163     NOP
005B   0000           00164     NOP
005C   0000           00165     NOP
005D   0000           00166     NOP
005E   0000           00167     NOP
005F   0000           00168     NOP
0060   0008           00169     RETURN
                      00170     
0061                  00171 DELAY_SMALL
0061   300A           00172     MOVLW .10
0062   08??           00173     MOVFW CONT1
0063   0B??           00174     DECFSZ CONT1, F
0064   2???           00175                GOTO $-1 ;IR A PC - 1, REGRESAR A DECFSZ
0065   0008           00176  RETURN
                      00177  
0066                  00178 DELAY_MULTPLX
0066   300A           00179     MOVLW .10
0067   00??           00180     MOVWF CONT2
MPASM 5.77                    ETCHSKETCH.ASM   10-13-2020  15:31:53         PAGE  5


LOC  OBJECT CODE     LINE SOURCE TEXT
  VALUE

0068                  00181 CONFIG1:    
0068   2???           00182     CALL DELAY_SMALL
0069   0B??           00183     DECFSZ CONT2, F
006A   2???           00184     GOTO CONFIG1
006B   0008           00185     RETURN
                      00186     
                      00187 
006C                  00188 RECIBIR:
006C   1E8C           00189     BTFSS   PIR1, RCIF
006D   0008           00190     RETURN
006E   081A           00191     MOVF    RCREG, W
006F   00??           00192     MOVWF   DECODE
0070   00??           00193     MOVWF   DECODE2
0071   0008           00194     RETURN
                      00195     
0072                  00196 ENVIO:
0072   1E0C           00197     BTFSS   PIR1, TXIF
0073   0008           00198     RETURN
0074   08??           00199     MOVFW   ADC_VAL
0075   0099           00200     MOVWF   TXREG
0076   0008           00201     RETURN
                      00202     
0077                  00203 RECIBIR2:
0077   1E8C           00204     BTFSS   PIR1, RCIF
0078   0008           00205     RETURN
0079   081A           00206     MOVF    RCREG, W
007A   00??           00207     MOVWF   DECODE3
007B   00??           00208     MOVWF   DECODE4
007C   0008           00209     RETURN
                      00210     
007D                  00211 ENVIO2:
007D   1E0C           00212     BTFSS   PIR1, TXIF
007E   0008           00213     RETURN
007F   08??           00214     MOVFW   ADC_VAL2
0080   0099           00215     MOVWF   TXREG
0081   0008           00216     RETURN
                      00217     
0082                  00218 SEG7:
0082   0186           00219     CLRF PORTB
0083   1488           00220     BSF PORTD, 1
0084   1108           00221     BCF PORTD, 2
0085   1188           00222     BCF PORTD, 3
0086   1208           00223     BCF PORTD, 4
0087   08??           00224     MOVF DECODE, W
0088   2???           00225     CALL TABLA_7SEG
0089   0086           00226     MOVWF PORTB
008A   2???           00227     CALL DELAY_MULTPLX
                      00228     
008B   0186           00229     CLRF PORTB
008C   1088           00230     BCF PORTD, 1
008D   1508           00231     BSF PORTD, 2
008E   1188           00232     BCF PORTD, 3
008F   1208           00233     BCF PORTD, 4
MPASM 5.77                    ETCHSKETCH.ASM   10-13-2020  15:31:53         PAGE  6


LOC  OBJECT CODE     LINE SOURCE TEXT
  VALUE

0090   0E??           00234     SWAPF DECODE2, W
0091   00??           00235     MOVWF DECODE2
0092   2???           00236     CALL TABLA_7SEG
0093   0086           00237     MOVWF PORTB
0094   2???           00238     CALL DELAY_MULTPLX
                      00239     
0095   0186           00240     CLRF PORTB
0096   1088           00241     BCF PORTD, 1
0097   1108           00242     BCF PORTD, 2
0098   1588           00243     BSF PORTD, 3
0099   1208           00244     BCF PORTD, 4
009A   08??           00245     MOVF DECODE3, W
009B   2???           00246     CALL TABLA_7SEG
009C   0086           00247     MOVWF PORTB
009D   2???           00248     CALL DELAY_MULTPLX
                      00249     
009E   0186           00250     CLRF PORTB
009F   1088           00251     BCF PORTD, 1
00A0   1108           00252     BCF PORTD, 2
00A1   1188           00253     BCF PORTD, 3
00A2   1608           00254     BSF PORTD, 4
00A3   0E??           00255     SWAPF DECODE4, W
00A4   00??           00256     MOVWF DECODE4
00A5   2???           00257     CALL TABLA_7SEG
00A6   0086           00258     MOVWF PORTB
00A7   2???           00259     CALL DELAY_MULTPLX
                      00260     
00A8   0008           00261     RETURN
                      00262     
20D4 3FFF             00263     END
MPASM 5.77                    ETCHSKETCH.ASM   10-13-2020  15:31:53         PAGE  7


SYMBOL TABLE
  LABEL                             VALUE 

ABDEN                             00000000
ABDOVF                            00000007
ACKDT                             00000005
ACKEN                             00000004
ACKSTAT                           00000006
ADCON0                            0000001F
ADCON1                            0000009F
ADCS0                             00000006
ADCS1                             00000007
ADC_VAL                           00000000
ADC_VAL2                          00000001
ADDEN                             00000003
ADFM                              00000007
ADIE                              00000006
ADIF                              00000006
ADON                              00000000
ADRESH                            0000001E
ADRESL                            0000009E
ANS0                              00000000
ANS1                              00000001
ANS10                             00000002
ANS11                             00000003
ANS12                             00000004
ANS13                             00000005
ANS2                              00000002
ANS3                              00000003
ANS4                              00000004
ANS5                              00000005
ANS6                              00000006
ANS7                              00000007
ANS8                              00000000
ANS9                              00000001
ANSEL                             00000188
ANSELH                            00000189
BAUDCTL                           00000187
BCLIE                             00000003
BCLIF                             00000003
BF                                00000000
BRG0                              00000000
BRG1                              00000001
BRG10                             00000002
BRG11                             00000003
BRG12                             00000004
BRG13                             00000005
BRG14                             00000006
BRG15                             00000007
BRG16                             00000003
BRG2                              00000002
BRG3                              00000003
BRG4                              00000004
BRG5                              00000005
BRG6                              00000006
BRG7                              00000007
MPASM 5.77                    ETCHSKETCH.ASM   10-13-2020  15:31:53         PAGE  8


SYMBOL TABLE
  LABEL                             VALUE 

BRG8                              00000000
BRG9                              00000001
BRGH                              00000002
C                                 00000000
C1CH0                             00000000
C1CH1                             00000001
C1IE                              00000005
C1IF                              00000005
C1OE                              00000005
C1ON                              00000007
C1OUT                             00000006
C1POL                             00000004
C1R                               00000002
C1RSEL                            00000005
C1SEN                             00000005
C2CH0                             00000000
C2CH1                             00000001
C2IE                              00000006
C2IF                              00000006
C2OE                              00000005
C2ON                              00000007
C2OUT                             00000006
C2POL                             00000004
C2R                               00000002
C2REN                             00000004
C2RSEL                            00000004
C2SYNC                            00000000
CCP1CON                           00000017
CCP1IE                            00000002
CCP1IF                            00000002
CCP1M0                            00000000
CCP1M1                            00000001
CCP1M2                            00000002
CCP1M3                            00000003
CCP1X                             00000005
CCP1Y                             00000004
CCP2CON                           0000001D
CCP2IE                            00000000
CCP2IF                            00000000
CCP2M0                            00000000
CCP2M1                            00000001
CCP2M2                            00000002
CCP2M3                            00000003
CCP2X                             00000005
CCP2Y                             00000004
CCPR1                             00000015
CCPR1H                            00000016
CCPR1L                            00000015
CCPR2                             0000001B
CCPR2H                            0000001C
CCPR2L                            0000001B
CHS0                              00000002
CHS1                              00000003
MPASM 5.77                    ETCHSKETCH.ASM   10-13-2020  15:31:53         PAGE  9


SYMBOL TABLE
  LABEL                             VALUE 

CHS2                              00000004
CHS3                              00000005
CKE                               00000006
CKP                               00000004
CM1CON0                           00000107
CM2CON0                           00000108
CM2CON1                           00000109
CONFIG1                           00000068
CONFIG_ADC                        0000002D
CONFIG_ADC2                       00000036
CONFIG_IO                         0000001B
CONFIG_TXRX                       0000003F
CONT1                             00000006
CONT2                             00000007
CREN                              00000004
CSRC                              00000007
D                                 00000005
DATA_ADDRESS                      00000005
DC                                00000001
DC1B0                             00000004
DC1B1                             00000005
DC2B0                             00000004
DC2B1                             00000005
DECODE                            00000002
DECODE2                           00000003
DECODE3                           00000004
DECODE4                           00000005
DELAY_AQ                          00000056
DELAY_MULTPLX                     00000066
DELAY_SMALL                       00000061
D_A                               00000005
D_NOT_A                           00000005
ECCPAS                            0000009C
ECCPAS0                           00000004
ECCPAS1                           00000005
ECCPAS2                           00000006
ECCPASE                           00000007
EEADR                             0000010D
EEADRH                            0000010F
EECON1                            0000018C
EECON2                            0000018D
EEDAT                             0000010C
EEDATA                            0000010C
EEDATH                            0000010E
EEIE                              00000004
EEIF                              00000004
EEPGD                             00000007
ENVIO                             00000072
ENVIO2                            0000007D
F                                 00000001
FERR                              00000002
FSR                               00000004
FVREN                             00000000
MPASM 5.77                    ETCHSKETCH.ASM   10-13-2020  15:31:53         PAGE 10


SYMBOL TABLE
  LABEL                             VALUE 

GCEN                              00000007
GIE                               00000007
GO                                00000001
GO_DONE                           00000001
GO_NOT_DONE                       00000001
HTS                               00000002
I2C_DATA                          00000005
I2C_READ                          00000002
I2C_START                         00000003
I2C_STOP                          00000004
INDF                              00000000
INTCON                            0000000B
INTE                              00000004
INTEDG                            00000006
INTF                              00000001
IOCB                              00000096
IOCB0                             00000000
IOCB1                             00000001
IOCB2                             00000002
IOCB3                             00000003
IOCB4                             00000004
IOCB5                             00000005
IOCB6                             00000006
IOCB7                             00000007
IRCF0                             00000004
IRCF1                             00000005
IRCF2                             00000006
IRP                               00000007
LOOP                              00000003
LTS                               00000001
MC1OUT                            00000007
MC2OUT                            00000006
MSK                               00000093
MSK0                              00000000
MSK1                              00000001
MSK2                              00000002
MSK3                              00000003
MSK4                              00000004
MSK5                              00000005
MSK6                              00000006
MSK7                              00000007
NOT_A                             00000005
NOT_ADDRESS                       00000005
NOT_BO                            00000000
NOT_BOR                           00000000
NOT_DONE                          00000001
NOT_PD                            00000003
NOT_POR                           00000001
NOT_RBPU                          00000007
NOT_RC8                           00000006
NOT_T1SYNC                        00000002
NOT_TO                            00000004
NOT_TX8                           00000006
MPASM 5.77                    ETCHSKETCH.ASM   10-13-2020  15:31:53         PAGE 11


SYMBOL TABLE
  LABEL                             VALUE 

NOT_W                             00000002
NOT_WRITE                         00000002
OERR                              00000001
OPTION_REG                        00000081
OSCCON                            0000008F
OSCTUNE                           00000090
OSFIE                             00000007
OSFIF                             00000007
OSTS                              00000003
P                                 00000004
P1M0                              00000006
P1M1                              00000007
PCL                               00000002
PCLATH                            0000000A
PCON                              0000008E
PDC0                              00000000
PDC1                              00000001
PDC2                              00000002
PDC3                              00000003
PDC4                              00000004
PDC5                              00000005
PDC6                              00000006
PEIE                              00000006
PEN                               00000002
PIE1                              0000008C
PIE2                              0000008D
PIR1                              0000000C
PIR2                              0000000D
PORTA                             00000005
PORTB                             00000006
PORTC                             00000007
PORTD                             00000008
PORTE                             00000009
PR2                               00000092
PRSEN                             00000007
PS0                               00000000
PS1                               00000001
PS2                               00000002
PSA                               00000003
PSSAC0                            00000002
PSSAC1                            00000003
PSSBD0                            00000000
PSSBD1                            00000001
PSTRCON                           0000009D
PULSR                             00000002
PULSS                             00000003
PWM1CON                           0000009B
R                                 00000002
RA0                               00000000
RA1                               00000001
RA2                               00000002
RA3                               00000003
RA4                               00000004
MPASM 5.77                    ETCHSKETCH.ASM   10-13-2020  15:31:53         PAGE 12


SYMBOL TABLE
  LABEL                             VALUE 

RA5                               00000005
RA6                               00000006
RA7                               00000007
RB0                               00000000
RB1                               00000001
RB2                               00000002
RB3                               00000003
RB4                               00000004
RB5                               00000005
RB6                               00000006
RB7                               00000007
RBIE                              00000003
RBIF                              00000000
RC0                               00000000
RC1                               00000001
RC2                               00000002
RC3                               00000003
RC4                               00000004
RC5                               00000005
RC6                               00000006
RC7                               00000007
RC8_9                             00000006
RC9                               00000006
RCD8                              00000000
RCEN                              00000003
RCIDL                             00000006
RCIE                              00000005
RCIF                              00000005
RCREG                             0000001A
RCSTA                             00000018
RD                                00000000
RD0                               00000000
RD1                               00000001
RD2                               00000002
RD3                               00000003
RD4                               00000004
RD5                               00000005
RD6                               00000006
RD7                               00000007
RE0                               00000000
RE1                               00000001
RE2                               00000002
RE3                               00000003
READ_WRITE                        00000002
RECIBIR                           0000006C
RECIBIR2                          00000077
RP0                               00000005
RP1                               00000006
RSEN                              00000001
RX9                               00000006
RX9D                              00000000
R_NOT_W                           00000002
R_W                               00000002
MPASM 5.77                    ETCHSKETCH.ASM   10-13-2020  15:31:53         PAGE 13


SYMBOL TABLE
  LABEL                             VALUE 

S                                 00000003
SBOREN                            00000004
SCKP                              00000004
SCS                               00000000
SEG7                              00000082
SEN                               00000000
SENDB                             00000003
SETUP                             00000000
SMP                               00000007
SPBRG                             00000099
SPBRGH                            0000009A
SPEN                              00000007
SR0                               00000006
SR1                               00000007
SRCON                             00000185
SREN                              00000005
SSPADD                            00000093
SSPBUF                            00000013
SSPCON                            00000014
SSPCON2                           00000091
SSPEN                             00000005
SSPIE                             00000003
SSPIF                             00000003
SSPM0                             00000000
SSPM1                             00000001
SSPM2                             00000002
SSPM3                             00000003
SSPMSK                            00000093
SSPOV                             00000006
SSPSTAT                           00000094
STATUS                            00000003
STRA                              00000000
STRB                              00000001
STRC                              00000002
STRD                              00000003
STRSYNC                           00000004
SWDTEN                            00000000
SYNC                              00000004
T0CS                              00000005
T0IE                              00000005
T0IF                              00000002
T0SE                              00000004
T1CKPS0                           00000004
T1CKPS1                           00000005
T1CON                             00000010
T1GINV                            00000007
T1GIV                             00000007
T1GSS                             00000001
T1INSYNC                          00000002
T1OSCEN                           00000003
T1SYNC                            00000002
T2CKPS0                           00000000
T2CKPS1                           00000001
MPASM 5.77                    ETCHSKETCH.ASM   10-13-2020  15:31:53         PAGE 14


SYMBOL TABLE
  LABEL                             VALUE 

T2CON                             00000012
TABLA_7SEG                        00000001
TMR0                              00000001
TMR0IE                            00000005
TMR0IF                            00000002
TMR1                              0000000E
TMR1CS                            00000001
TMR1GE                            00000006
TMR1H                             0000000F
TMR1IE                            00000000
TMR1IF                            00000000
TMR1L                             0000000E
TMR1ON                            00000000
TMR2                              00000011
TMR2IE                            00000001
TMR2IF                            00000001
TMR2ON                            00000002
TOUTPS0                           00000003
TOUTPS1                           00000004
TOUTPS2                           00000005
TOUTPS3                           00000006
TRISA                             00000085
TRISA0                            00000000
TRISA1                            00000001
TRISA2                            00000002
TRISA3                            00000003
TRISA4                            00000004
TRISA5                            00000005
TRISA6                            00000006
TRISA7                            00000007
TRISB                             00000086
TRISB0                            00000000
TRISB1                            00000001
TRISB2                            00000002
TRISB3                            00000003
TRISB4                            00000004
TRISB5                            00000005
TRISB6                            00000006
TRISB7                            00000007
TRISC                             00000087
TRISC0                            00000000
TRISC1                            00000001
TRISC2                            00000002
TRISC3                            00000003
TRISC4                            00000004
TRISC5                            00000005
TRISC6                            00000006
TRISC7                            00000007
TRISD                             00000088
TRISD0                            00000000
TRISD1                            00000001
TRISD2                            00000002
TRISD3                            00000003
MPASM 5.77                    ETCHSKETCH.ASM   10-13-2020  15:31:53         PAGE 15


SYMBOL TABLE
  LABEL                             VALUE 

TRISD4                            00000004
TRISD5                            00000005
TRISD6                            00000006
TRISD7                            00000007
TRISE                             00000089
TRISE0                            00000000
TRISE1                            00000001
TRISE2                            00000002
TRISE3                            00000003
TRMT                              00000001
TUN0                              00000000
TUN1                              00000001
TUN2                              00000002
TUN3                              00000003
TUN4                              00000004
TX8_9                             00000006
TX9                               00000006
TX9D                              00000000
TXD8                              00000000
TXEN                              00000005
TXIE                              00000004
TXIF                              00000004
TXREG                             00000019
TXSTA                             00000098
UA                                00000001
ULPWUE                            00000005
ULPWUIE                           00000002
ULPWUIF                           00000002
VCFG0                             00000004
VCFG1                             00000005
VR0                               00000000
VR1                               00000001
VR2                               00000002
VR3                               00000003
VRCON                             00000097
VREN                              00000007
VROE                              00000006
VRR                               00000005
VRSS                              00000004
W                                 00000000
WCOL                              00000007
WDTCON                            00000105
WDTPS0                            00000001
WDTPS1                            00000002
WDTPS2                            00000003
WDTPS3                            00000004
WPUB                              00000095
WPUB0                             00000000
WPUB1                             00000001
WPUB2                             00000002
WPUB3                             00000003
WPUB4                             00000004
WPUB5                             00000005
MPASM 5.77                    ETCHSKETCH.ASM   10-13-2020  15:31:53         PAGE 16


SYMBOL TABLE
  LABEL                             VALUE 

WPUB6                             00000006
WPUB7                             00000007
WR                                00000001
WREN                              00000002
WRERR                             00000003
WUE                               00000001
Z                                 00000002
_BOR21V                           00003EFF
_BOR40V                           00003FFF
_BOR4V_BOR21V                     00003EFF
_BOR4V_BOR40V                     00003FFF
_BOREN_NSLEEP                     00003EFF
_BOREN_OFF                        00003CFF
_BOREN_ON                         00003FFF
_BOREN_SBODEN                     00003DFF
_BOR_NSLEEP                       00003EFF
_BOR_OFF                          00003CFF
_BOR_ON                           00003FFF
_BOR_SBODEN                       00003DFF
_CONFIG1                          00002007
_CONFIG2                          00002008
_CPD_OFF                          00003FFF
_CPD_ON                           00003F7F
_CP_OFF                           00003FFF
_CP_ON                            00003FBF
_DEBUG_OFF                        00003FFF
_DEBUG_ON                         00001FFF
_DEVID1                           00002006
_EC_OSC                           00003FFB
_EXTRC                            00003FFF
_EXTRCIO                          00003FFE
_EXTRC_OSC_CLKOUT                 00003FFF
_EXTRC_OSC_NOCLKOUT               00003FFE
_FCMEN_OFF                        000037FF
_FCMEN_ON                         00003FFF
_FOSC_EC                          00003FFB
_FOSC_EXTRC_CLKOUT                00003FFF
_FOSC_EXTRC_NOCLKOUT              00003FFE
_FOSC_HS                          00003FFA
_FOSC_INTRC_CLKOUT                00003FFD
_FOSC_INTRC_NOCLKOUT              00003FFC
_FOSC_LP                          00003FF8
_FOSC_XT                          00003FF9
_HS_OSC                           00003FFA
_IDLOC0                           00002000
_IDLOC1                           00002001
_IDLOC2                           00002002
_IDLOC3                           00002003
_IESO_OFF                         00003BFF
_IESO_ON                          00003FFF
_INTOSC                           00003FFD
_INTOSCIO                         00003FFC
_INTRC_OSC_CLKOUT                 00003FFD
MPASM 5.77                    ETCHSKETCH.ASM   10-13-2020  15:31:53         PAGE 17


SYMBOL TABLE
  LABEL                             VALUE 

_INTRC_OSC_NOCLKOUT               00003FFC
_LP_OSC                           00003FF8
_LVP_OFF                          00002FFF
_LVP_ON                           00003FFF
_MAIN_PROG_0009                   00000009
_MAIN_PROG_0014                   00000014
_MAIN_PROG_0064                   00000064
_MCLRE_OFF                        00003FDF
_MCLRE_ON                         00003FFF
_PWRTE_OFF                        00003FFF
_PWRTE_ON                         00003FEF
_WDTE_OFF                         00003FF7
_WDTE_ON                          00003FFF
_WDT_OFF                          00003FF7
_WDT_ON                           00003FFF
_WRT_1FOURTH                      00003BFF
_WRT_256                          00003DFF
_WRT_HALF                         000039FF
_WRT_OFF                          00003FFF
_XT_OSC                           00003FF9
__16F887                          00000001

Errors   :     0
Warnings :     0 reported,     0 suppressed
Messages :    18 reported,     0 suppressed

